target datalayout = "e-m:e-p270:32:32-p271:32:32-p272:64:64-i64:64-i128:128-f80:128-n8:16:32:64-S128"
target triple = "x86_64-pc-linux-gnu"

%struct.lua_State = type { i8, i8, i8, i8, i8, i8, i8, ptr, ptr, ptr, ptr, ptr, ptr, ptr, ptr, i32, i32, i16, i16, i32, ptr, ptr, ptr, ptr, ptr }
%struct.global_State = type { %struct.stringtable, ptr, ptr, i8, i8, ptr, ptr, ptr, i64, i64, i32, i32, i32, [40 x ptr], [40 x ptr], ptr, ptr, ptr, [256 x i64], ptr, %struct.UpVal, [11 x ptr], [11 x ptr], [21 x ptr], %struct.lua_TValue, %struct.lua_TValue, i32, ptr, i64, [4 x i64], %struct.lua_Callbacks, %struct.lua_ExecutionCallbacks, [128 x ptr], [128 x ptr], [128 x ptr], %struct.GCStats }
%struct.stringtable = type { ptr, i32, i32 }
%struct.UpVal = type { i8, i8, i8, i8, ptr, %union.anon }
%union.anon = type { %struct.anon }
%struct.anon = type { ptr, ptr, ptr }
%struct.lua_TValue = type { %union.Value, [1 x i32], i32 }
%union.Value = type { ptr }
%struct.lua_Callbacks = type { ptr, ptr, ptr, ptr, ptr, ptr, ptr, ptr, ptr, ptr }
%struct.lua_ExecutionCallbacks = type { ptr, ptr, ptr, ptr, ptr, ptr, ptr }
%struct.GCStats = type { [32 x i32], i32, i32, i64, i64, i64, double, double, double }

; Function Attrs: mustprogress nounwind uwtable
define internal void @_ZN4Luau7CodeGenL28initializeExecutionCallbacksEP9lua_StatePNS0_18BaseCodeGenContextE(ptr noundef %0, ptr noundef %1) #1 {
  %3 = alloca ptr, align 8
  %4 = alloca ptr, align 8
  %5 = alloca ptr, align 8
  store ptr %0, ptr %3, align 8, !tbaa !214
  store ptr %1, ptr %4, align 8, !tbaa !23
  call void @llvm.lifetime.start.p0(i64 8, ptr %5) #17
  %6 = load ptr, ptr %3, align 8, !tbaa !214
  %7 = getelementptr inbounds nuw %struct.lua_State, ptr %6, i32 0, i32 9
  %8 = load ptr, ptr %7, align 8, !tbaa !219
  %9 = getelementptr inbounds nuw %struct.global_State, ptr %8, i32 0, i32 31
  store ptr %9, ptr %5, align 8, !tbaa !226
  %10 = load ptr, ptr %4, align 8, !tbaa !23
  %11 = load ptr, ptr %5, align 8, !tbaa !226
  %12 = getelementptr inbounds nuw %struct.lua_ExecutionCallbacks, ptr %11, i32 0, i32 0
  store ptr %10, ptr %12, align 8, !tbaa !228
  %13 = load ptr, ptr %5, align 8, !tbaa !226
  %14 = getelementptr inbounds nuw %struct.lua_ExecutionCallbacks, ptr %13, i32 0, i32 1
  store ptr @_ZN4Luau7CodeGenL12onCloseStateEP9lua_State, ptr %14, align 8, !tbaa !230
  %15 = load ptr, ptr %5, align 8, !tbaa !226
  %16 = getelementptr inbounds nuw %struct.lua_ExecutionCallbacks, ptr %15, i32 0, i32 2
  store ptr @_ZN4Luau7CodeGenL17onDestroyFunctionEP9lua_StateP5Proto, ptr %16, align 8, !tbaa !231
  %17 = load ptr, ptr %5, align 8, !tbaa !226
  %18 = getelementptr inbounds nuw %struct.lua_ExecutionCallbacks, ptr %17, i32 0, i32 3
  store ptr @_ZN4Luau7CodeGenL7onEnterEP9lua_StateP5Proto, ptr %18, align 8, !tbaa !232
  %19 = load ptr, ptr %5, align 8, !tbaa !226
  %20 = getelementptr inbounds nuw %struct.lua_ExecutionCallbacks, ptr %19, i32 0, i32 4
  store ptr @_ZN4Luau7CodeGen9onDisableEP9lua_StateP5Proto, ptr %20, align 8, !tbaa !233
  %21 = load ptr, ptr %5, align 8, !tbaa !226
  %22 = getelementptr inbounds nuw %struct.lua_ExecutionCallbacks, ptr %21, i32 0, i32 5
  store ptr @_ZN4Luau7CodeGenL13getMemorySizeEP9lua_StateP5Proto, ptr %22, align 8, !tbaa !234
  call void @llvm.lifetime.end.p0(i64 8, ptr %5) #17
  ret void
}

; Function Attrs: mustprogress nounwind uwtable
define dso_local void @_ZN4Luau7CodeGen6createEP9lua_StatePNS0_20SharedCodeGenContextE(ptr noundef %0, ptr noundef %1) #1 {
  %3 = alloca ptr, align 8
  %4 = alloca ptr, align 8
  store ptr %0, ptr %3, align 8, !tbaa !214
  store ptr %1, ptr %4, align 8, !tbaa !186
  %5 = load ptr, ptr %3, align 8, !tbaa !214
  %6 = load ptr, ptr %4, align 8, !tbaa !186
  call void @_ZN4Luau7CodeGenL28initializeExecutionCallbacksEP9lua_StatePNS0_18BaseCodeGenContextE(ptr noundef %5, ptr noundef %6) #17
  ret void
}