; Function Attrs: mustprogress nofree norecurse nosync nounwind willreturn memory(write, argmem: readwrite, inaccessiblemem: none) uwtable
define dso_local void @_ZN4Luau7CodeGen6createEP9lua_StatePNS0_20SharedCodeGenContextE(ptr noundef readonly captures(none) %0, ptr noundef %1) local_unnamed_addr #10 {
  %3 = getelementptr i8, ptr %0, i64 24
  %.val = load ptr, ptr %3, align 8, !tbaa !121
  %4 = getelementptr inbounds nuw i8, ptr %.val, i64 3368
  store ptr %1, ptr %4, align 8, !tbaa !128
  %5 = getelementptr inbounds nuw i8, ptr %.val, i64 3376
  store ptr @_ZN4Luau7CodeGenL12onCloseStateEP9lua_State, ptr %5, align 8, !tbaa !130
  %6 = getelementptr inbounds nuw i8, ptr %.val, i64 3384
  store ptr @_ZN4Luau7CodeGenL17onDestroyFunctionEP9lua_StateP5Proto, ptr %6, align 8, !tbaa !131
  %7 = getelementptr inbounds nuw i8, ptr %.val, i64 3392
  store ptr @_ZN4Luau7CodeGenL7onEnterEP9lua_StateP5Proto, ptr %7, align 8, !tbaa !132
  %8 = getelementptr inbounds nuw i8, ptr %.val, i64 3400
  store ptr @_ZN4Luau7CodeGen9onDisableEP9lua_StateP5Proto, ptr %8, align 8, !tbaa !133
  %9 = getelementptr inbounds nuw i8, ptr %.val, i64 3408
  store ptr @_ZN4Luau7CodeGenL13getMemorySizeEP9lua_StateP5Proto, ptr %9, align 8, !tbaa !134
  ret void
}